target datalayout = "e-m:e-p270:32:32-p271:32:32-p272:64:64-i64:64-i128:128-f80:128-n8:16:32:64-S128"
target triple = "x86_64-pc-linux-gnu"

%struct.color_t = type { i16, i16, i16 }
%struct.preference = type { ptr, ptr, ptr, i32, i32, i32, %union.anon, %union.anon.0, %union.anon.1, %union.anon.2, %struct.pref_custom_cbs, ptr, ptr }
%union.anon = type { ptr }
%union.anon.0 = type { ptr }
%union.anon.1 = type { ptr }
%union.anon.2 = type { %struct.anon }
%struct.anon = type { ptr, i8 }
%struct.pref_custom_cbs = type { ptr, ptr, ptr, ptr, ptr, ptr, ptr }

; Function Attrs: null_pointer_is_valid sspstrong uwtable
define zeroext i1 @prefs_pref_is_default(ptr noundef %0) #1 {
  %2 = alloca i1, align 1
  %3 = alloca ptr, align 8
  %4 = alloca i32, align 4
  %5 = alloca i32, align 4
  store ptr %0, ptr %3, align 8
  call void @llvm.lifetime.start.p0(i64 4, ptr %4) #17
  %6 = load ptr, ptr %3, align 8
  %7 = icmp ne ptr %6, null
  br i1 %7, label %9, label %8

8:                                                ; preds = %1
  store i1 false, ptr %2, align 1
  store i32 1, ptr %5, align 4
  br label %132

9:                                                ; preds = %1
  %10 = load ptr, ptr %3, align 8
  %11 = getelementptr inbounds nuw %struct.preference, ptr %10, i32 0, i32 4
  %12 = load i32, ptr %11, align 4
  store i32 %12, ptr %4, align 4
  %13 = load i32, ptr %4, align 4
  %14 = and i32 %13, 1024
  %15 = icmp ne i32 %14, 0
  br i1 %15, label %16, label %17

16:                                               ; preds = %9
  store i1 false, ptr %2, align 1
  store i32 1, ptr %5, align 4
  br label %132

17:                                               ; preds = %9
  %18 = load i32, ptr %4, align 4
  %19 = and i32 %18, -1025
  store i32 %19, ptr %4, align 4
  br label %20

20:                                               ; preds = %17
  %21 = load i32, ptr %4, align 4
  switch i32 %21, label %131 [
    i32 1, label %22
    i32 2, label %33
    i32 4, label %48
    i32 65536, label %48
    i32 8, label %59
    i32 128, label %59
    i32 16384, label %59
    i32 2048, label %59
    i32 32768, label %59
    i32 131072, label %59
    i32 8192, label %71
    i32 16, label %71
    i32 256, label %82
    i32 512, label %123
    i32 32, label %130
    i32 64, label %130
  ]

22:                                               ; preds = %20
  %23 = load ptr, ptr %3, align 8
  %24 = getelementptr inbounds nuw %struct.preference, ptr %23, i32 0, i32 8
  %25 = load i32, ptr %24, align 8
  %26 = load ptr, ptr %3, align 8
  %27 = getelementptr inbounds nuw %struct.preference, ptr %26, i32 0, i32 6
  %28 = load ptr, ptr %27, align 8
  %29 = load i32, ptr %28, align 4
  %30 = icmp eq i32 %25, %29
  br i1 %30, label %31, label %32

31:                                               ; preds = %22
  store i1 true, ptr %2, align 1
  store i32 1, ptr %5, align 4
  br label %132

32:                                               ; preds = %22
  br label %131

33:                                               ; preds = %20
  %34 = load ptr, ptr %3, align 8
  %35 = getelementptr inbounds nuw %struct.preference, ptr %34, i32 0, i32 8
  %36 = load i8, ptr %35, align 8, !range !6, !noundef !7
  %37 = trunc i8 %36 to i1
  %38 = zext i1 %37 to i32
  %39 = load ptr, ptr %3, align 8
  %40 = getelementptr inbounds nuw %struct.preference, ptr %39, i32 0, i32 6
  %41 = load ptr, ptr %40, align 8
  %42 = load i8, ptr %41, align 1, !range !6, !noundef !7
  %43 = trunc i8 %42 to i1
  %44 = zext i1 %43 to i32
  %45 = icmp eq i32 %38, %44
  br i1 %45, label %46, label %47

46:                                               ; preds = %33
  store i1 true, ptr %2, align 1
  store i32 1, ptr %5, align 4
  br label %132

47:                                               ; preds = %33
  br label %131

48:                                               ; preds = %20, %20
  %49 = load ptr, ptr %3, align 8
  %50 = getelementptr inbounds nuw %struct.preference, ptr %49, i32 0, i32 8
  %51 = load i32, ptr %50, align 8
  %52 = load ptr, ptr %3, align 8
  %53 = getelementptr inbounds nuw %struct.preference, ptr %52, i32 0, i32 6
  %54 = load ptr, ptr %53, align 8
  %55 = load i32, ptr %54, align 4
  %56 = icmp eq i32 %51, %55
  br i1 %56, label %57, label %58

57:                                               ; preds = %48
  store i1 true, ptr %2, align 1
  store i32 1, ptr %5, align 4
  br label %132

58:                                               ; preds = %48
  br label %131

59:                                               ; preds = %20, %20, %20, %20, %20, %20
  %60 = load ptr, ptr %3, align 8
  %61 = getelementptr inbounds nuw %struct.preference, ptr %60, i32 0, i32 8
  %62 = load ptr, ptr %61, align 8
  %63 = load ptr, ptr %3, align 8
  %64 = getelementptr inbounds nuw %struct.preference, ptr %63, i32 0, i32 6
  %65 = load ptr, ptr %64, align 8
  %66 = load ptr, ptr %65, align 8
  %67 = call i32 @g_strcmp0(ptr noundef %62, ptr noundef %66)
  %68 = icmp ne i32 %67, 0
  br i1 %68, label %70, label %69

69:                                               ; preds = %59
  store i1 true, ptr %2, align 1
  store i32 1, ptr %5, align 4
  br label %132

70:                                               ; preds = %59
  br label %131

71:                                               ; preds = %20, %20
  %72 = load ptr, ptr %3, align 8
  %73 = getelementptr inbounds nuw %struct.preference, ptr %72, i32 0, i32 8
  %74 = load ptr, ptr %73, align 8
  %75 = load ptr, ptr %3, align 8
  %76 = getelementptr inbounds nuw %struct.preference, ptr %75, i32 0, i32 6
  %77 = load ptr, ptr %76, align 8
  %78 = load ptr, ptr %77, align 8
  %79 = call zeroext i1 @ranges_are_equal(ptr noundef %74, ptr noundef %78)
  br i1 %79, label %80, label %81

80:                                               ; preds = %71
  store i1 true, ptr %2, align 1
  store i32 1, ptr %5, align 4
  br label %132

81:                                               ; preds = %71
  br label %131

82:                                               ; preds = %20
  %83 = load ptr, ptr %3, align 8
  %84 = getelementptr inbounds nuw %struct.preference, ptr %83, i32 0, i32 8
  %85 = getelementptr inbounds nuw %struct.color_t, ptr %84, i32 0, i32 0
  %86 = load i16, ptr %85, align 8
  %87 = zext i16 %86 to i32
  %88 = load ptr, ptr %3, align 8
  %89 = getelementptr inbounds nuw %struct.preference, ptr %88, i32 0, i32 6
  %90 = load ptr, ptr %89, align 8
  %91 = getelementptr inbounds nuw %struct.color_t, ptr %90, i32 0, i32 0
  %92 = load i16, ptr %91, align 2
  %93 = zext i16 %92 to i32
  %94 = icmp eq i32 %87, %93
  br i1 %94, label %95, label %122

95:                                               ; preds = %82
  %96 = load ptr, ptr %3, align 8
  %97 = getelementptr inbounds nuw %struct.preference, ptr %96, i32 0, i32 8
  %98 = getelementptr inbounds nuw %struct.color_t, ptr %97, i32 0, i32 1
  %99 = load i16, ptr %98, align 2
  %100 = zext i16 %99 to i32
  %101 = load ptr, ptr %3, align 8
  %102 = getelementptr inbounds nuw %struct.preference, ptr %101, i32 0, i32 6
  %103 = load ptr, ptr %102, align 8
  %104 = getelementptr inbounds nuw %struct.color_t, ptr %103, i32 0, i32 1
  %105 = load i16, ptr %104, align 2
  %106 = zext i16 %105 to i32
  %107 = icmp eq i32 %100, %106
  br i1 %107, label %108, label %122

108:                                              ; preds = %95
  %109 = load ptr, ptr %3, align 8
  %110 = getelementptr inbounds nuw %struct.preference, ptr %109, i32 0, i32 8
  %111 = getelementptr inbounds nuw %struct.color_t, ptr %110, i32 0, i32 2
  %112 = load i16, ptr %111, align 4
  %113 = zext i16 %112 to i32
  %114 = load ptr, ptr %3, align 8
  %115 = getelementptr inbounds nuw %struct.preference, ptr %114, i32 0, i32 6
  %116 = load ptr, ptr %115, align 8
  %117 = getelementptr inbounds nuw %struct.color_t, ptr %116, i32 0, i32 2
  %118 = load i16, ptr %117, align 2
  %119 = zext i16 %118 to i32
  %120 = icmp eq i32 %113, %119
  br i1 %120, label %121, label %122

121:                                              ; preds = %108
  store i1 true, ptr %2, align 1
  store i32 1, ptr %5, align 4
  br label %132

122:                                              ; preds = %108, %95, %82
  br label %131

123:                                              ; preds = %20
  %124 = load ptr, ptr %3, align 8
  %125 = getelementptr inbounds nuw %struct.preference, ptr %124, i32 0, i32 10
  %126 = getelementptr inbounds nuw %struct.pref_custom_cbs, ptr %125, i32 0, i32 5
  %127 = load ptr, ptr %126, align 8
  %128 = load ptr, ptr %3, align 8
  %129 = call zeroext i1 %127(ptr noundef %128)
  store i1 %129, ptr %2, align 1
  store i32 1, ptr %5, align 4
  br label %132

130:                                              ; preds = %20, %20
  store i1 false, ptr %2, align 1
  store i32 1, ptr %5, align 4
  br label %132

131:                                              ; preds = %20, %122, %81, %70, %58, %47, %32
  store i1 false, ptr %2, align 1
  store i32 1, ptr %5, align 4
  br label %132

132:                                              ; preds = %131, %130, %123, %121, %80, %69, %57, %46, %31, %16, %8
  call void @llvm.lifetime.end.p0(i64 4, ptr %4) #17
  %133 = load i1, ptr %2, align 1
  ret i1 %133
}