; Function Attrs: null_pointer_is_valid sspstrong uwtable
define zeroext i1 @prefs_pref_is_default(ptr noundef %0) local_unnamed_addr #1 {
  %.not = icmp eq ptr %0, null
  br i1 %.not, label %66, label %2

2:                                                ; preds = %1
  %3 = getelementptr inbounds nuw i8, ptr %0, i64 28
  %4 = load i32, ptr %3, align 4
  %5 = and i32 %4, 1024
  %.not24 = icmp eq i32 %5, 0
  br i1 %.not24, label %6, label %66

6:                                                ; preds = %2
  switch i32 %4, label %65 [
    i32 1, label %7
    i32 2, label %14
    i32 4, label %21
    i32 65536, label %21
    i32 8, label %28
    i32 128, label %28
    i32 16384, label %28
    i32 2048, label %28
    i32 32768, label %28
    i32 131072, label %28
    i32 8192, label %35
    i32 16, label %35
    i32 256, label %42
    i32 512, label %61
    i32 32, label %66
    i32 64, label %66
  ]

7:                                                ; preds = %6
  %8 = getelementptr inbounds nuw i8, ptr %0, i64 56
  %9 = load i32, ptr %8, align 8
  %10 = getelementptr inbounds nuw i8, ptr %0, i64 40
  %11 = load ptr, ptr %10, align 8
  %12 = load i32, ptr %11, align 4
  %13 = icmp eq i32 %9, %12
  br i1 %13, label %66, label %65

14:                                               ; preds = %6
  %15 = getelementptr inbounds nuw i8, ptr %0, i64 56
  %16 = load i8, ptr %15, align 8, !range !6, !noundef !7
  %17 = getelementptr inbounds nuw i8, ptr %0, i64 40
  %18 = load ptr, ptr %17, align 8
  %19 = load i8, ptr %18, align 1, !range !6, !noundef !7
  %20 = icmp eq i8 %16, %19
  br i1 %20, label %66, label %65

21:                                               ; preds = %6, %6
  %22 = getelementptr inbounds nuw i8, ptr %0, i64 56
  %23 = load i32, ptr %22, align 8
  %24 = getelementptr inbounds nuw i8, ptr %0, i64 40
  %25 = load ptr, ptr %24, align 8
  %26 = load i32, ptr %25, align 4
  %27 = icmp eq i32 %23, %26
  br i1 %27, label %66, label %65

28:                                               ; preds = %6, %6, %6, %6, %6, %6
  %29 = getelementptr inbounds nuw i8, ptr %0, i64 56
  %30 = load ptr, ptr %29, align 8
  %31 = getelementptr inbounds nuw i8, ptr %0, i64 40
  %32 = load ptr, ptr %31, align 8
  %33 = load ptr, ptr %32, align 8
  %34 = tail call i32 @g_strcmp0(ptr noundef %30, ptr noundef %33)
  %.not25 = icmp eq i32 %34, 0
  br i1 %.not25, label %66, label %65

35:                                               ; preds = %6, %6
  %36 = getelementptr inbounds nuw i8, ptr %0, i64 56
  %37 = load ptr, ptr %36, align 8
  %38 = getelementptr inbounds nuw i8, ptr %0, i64 40
  %39 = load ptr, ptr %38, align 8
  %40 = load ptr, ptr %39, align 8
  %41 = tail call zeroext i1 @ranges_are_equal(ptr noundef %37, ptr noundef %40)
  br i1 %41, label %66, label %65

42:                                               ; preds = %6
  %43 = getelementptr inbounds nuw i8, ptr %0, i64 56
  %44 = load i16, ptr %43, align 8
  %45 = getelementptr inbounds nuw i8, ptr %0, i64 40
  %46 = load ptr, ptr %45, align 8
  %47 = load i16, ptr %46, align 2
  %48 = icmp eq i16 %44, %47
  br i1 %48, label %49, label %65

49:                                               ; preds = %42
  %50 = getelementptr inbounds nuw i8, ptr %0, i64 58
  %51 = load i16, ptr %50, align 2
  %52 = getelementptr inbounds nuw i8, ptr %46, i64 2
  %53 = load i16, ptr %52, align 2
  %54 = icmp eq i16 %51, %53
  br i1 %54, label %55, label %65

55:                                               ; preds = %49
  %56 = getelementptr inbounds nuw i8, ptr %0, i64 60
  %57 = load i16, ptr %56, align 4
  %58 = getelementptr inbounds nuw i8, ptr %46, i64 4
  %59 = load i16, ptr %58, align 2
  %60 = icmp eq i16 %57, %59
  br i1 %60, label %66, label %65

61:                                               ; preds = %6
  %62 = getelementptr inbounds nuw i8, ptr %0, i64 120
  %63 = load ptr, ptr %62, align 8
  %64 = tail call zeroext i1 %63(ptr noundef nonnull %0)
  br label %66

65:                                               ; preds = %42, %49, %55, %35, %28, %21, %14, %7, %6
  br label %66

66:                                               ; preds = %6, %6, %55, %35, %28, %21, %14, %7, %2, %1, %65, %61
  %.0 = phi i1 [ false, %65 ], [ %64, %61 ], [ false, %1 ], [ false, %2 ], [ true, %7 ], [ true, %14 ], [ true, %21 ], [ true, %28 ], [ true, %35 ], [ true, %55 ], [ false, %6 ], [ false, %6 ]
  ret i1 %.0
}